target datalayout = "e-m:e-p270:32:32-p271:32:32-p272:64:64-i64:64-i128:128-f80:128-n8:16:32:64-S128"
target triple = "x86_64-pc-linux-gnu"

%struct._zend_refcounted_h = type { i32, %union.anon.3 }
%union.anon.3 = type { i32 }

; Function Attrs: nounwind uwtable
define ptr @_php_stream_open_wrapper_as_file(ptr noundef %0, ptr noundef %1, i32 noundef %2, ptr noundef %3) #0 {
  %5 = alloca ptr, align 8
  %6 = alloca i32, align 4
  %7 = alloca ptr, align 8
  %8 = alloca i8, align 1
  %9 = alloca ptr, align 8
  %10 = alloca ptr, align 8
  %11 = alloca ptr, align 8
  %12 = alloca i32, align 4
  %13 = alloca ptr, align 8
  %14 = alloca ptr, align 8
  %15 = alloca ptr, align 8
  store ptr %0, ptr %10, align 8
  store ptr %1, ptr %11, align 8
  store i32 %2, ptr %12, align 4
  store ptr %3, ptr %13, align 8
  store ptr null, ptr %14, align 8
  store ptr null, ptr %15, align 8
  %16 = load ptr, ptr %10, align 8
  %17 = load ptr, ptr %11, align 8
  %18 = load i32, ptr %12, align 4
  %19 = or i32 %18, 32
  %20 = load ptr, ptr %13, align 8
  %21 = call ptr @_php_stream_open_wrapper_ex(ptr noundef %16, ptr noundef %17, i32 noundef %19, ptr noundef %20, ptr noundef null)
  store ptr %21, ptr %15, align 8
  %22 = load ptr, ptr %15, align 8
  %23 = icmp eq ptr %22, null
  br i1 %23, label %24, label %25

24:                                               ; preds = %4
  store ptr null, ptr %9, align 8
  br label %70

25:                                               ; preds = %4
  %26 = load ptr, ptr %15, align 8
  %27 = call i32 @_php_stream_cast(ptr noundef %26, i32 noundef -1073741824, ptr noundef %14, i32 noundef 8)
  %28 = icmp eq i32 %27, -1
  br i1 %28, label %29, label %68

29:                                               ; preds = %25
  %30 = load ptr, ptr %15, align 8
  %31 = call i32 @_php_stream_free(ptr noundef %30, i32 noundef 3)
  %32 = load ptr, ptr %13, align 8
  %33 = icmp ne ptr %32, null
  br i1 %33, label %34, label %67

34:                                               ; preds = %29
  %35 = load ptr, ptr %13, align 8
  %36 = load ptr, ptr %35, align 8
  %37 = icmp ne ptr %36, null
  br i1 %37, label %38, label %67

38:                                               ; preds = %34
  %39 = load ptr, ptr %13, align 8
  %40 = load ptr, ptr %39, align 8
  store ptr %40, ptr %7, align 8
  store i8 0, ptr %8, align 1
  %41 = load ptr, ptr %7, align 8
  %42 = getelementptr inbounds %struct._zend_refcounted_h, ptr %41, i32 0, i32 1
  %43 = load i32, ptr %42, align 4
  store i32 %43, ptr %6, align 4
  %44 = load i32, ptr %6, align 4
  %45 = and i32 %44, 1008
  %46 = and i32 %45, 64
  %47 = icmp ne i32 %46, 0
  br i1 %47, label %66, label %48

48:                                               ; preds = %38
  %49 = load ptr, ptr %7, align 8
  store ptr %49, ptr %5, align 8
  %50 = load ptr, ptr %5, align 8
  %51 = load i32, ptr %50, align 4
  %52 = icmp ugt i32 %51, 0
  call void @llvm.assume(i1 %52)
  %53 = load ptr, ptr %5, align 8
  %54 = load i32, ptr %53, align 4
  %55 = add i32 %54, -1
  store i32 %55, ptr %53, align 4
  %56 = icmp eq i32 %55, 0
  br i1 %56, label %57, label %65

57:                                               ; preds = %48
  %58 = load i8, ptr %8, align 1
  %59 = trunc i8 %58 to i1
  br i1 %59, label %60, label %62

60:                                               ; preds = %57
  %61 = load ptr, ptr %7, align 8
  call void @free(ptr noundef %61) #4
  br label %64

62:                                               ; preds = %57
  %63 = load ptr, ptr %7, align 8
  call void @_efree(ptr noundef %63) #4
  br label %64

64:                                               ; preds = %62, %60
  br label %65

65:                                               ; preds = %64, %48
  br label %66

66:                                               ; preds = %65, %38
  br label %67

67:                                               ; preds = %66, %34, %29
  store ptr null, ptr %9, align 8
  br label %70

68:                                               ; preds = %25
  %69 = load ptr, ptr %14, align 8
  store ptr %69, ptr %9, align 8
  br label %70

70:                                               ; preds = %68, %67, %24
  %71 = load ptr, ptr %9, align 8
  ret ptr %71
}