; Function Attrs: nounwind uwtable
define ptr @_php_stream_open_wrapper_as_file(ptr noundef %0, ptr noundef %1, i32 noundef %2, ptr noundef %3) local_unnamed_addr #1 {
  %5 = alloca ptr, align 8
  store ptr null, ptr %5, align 8
  %6 = or i32 %2, 32
  %7 = tail call ptr @_php_stream_open_wrapper_ex(ptr noundef %0, ptr noundef %1, i32 noundef %6, ptr noundef %3, ptr noundef null) #7
  %8 = icmp eq ptr %7, null
  br i1 %8, label %28, label %9

9:                                                ; preds = %4
  %10 = call i32 @_php_stream_cast(ptr noundef nonnull %7, i32 noundef -1073741824, ptr noundef nonnull %5, i32 noundef 8), !range !4
  %11 = icmp eq i32 %10, -1
  br i1 %11, label %12, label %26

12:                                               ; preds = %9
  %13 = call i32 @_php_stream_free(ptr noundef nonnull %7, i32 noundef 3) #7
  %.not = icmp eq ptr %3, null
  br i1 %.not, label %28, label %14

14:                                               ; preds = %12
  %15 = load ptr, ptr %3, align 8
  %.not21 = icmp eq ptr %15, null
  br i1 %.not21, label %28, label %16

16:                                               ; preds = %14
  %17 = getelementptr inbounds i8, ptr %15, i64 4
  %18 = load i32, ptr %17, align 4
  %19 = and i32 %18, 64
  %.not22 = icmp eq i32 %19, 0
  br i1 %.not22, label %20, label %28

20:                                               ; preds = %16
  %21 = load i32, ptr %15, align 4
  %22 = icmp ne i32 %21, 0
  call void @llvm.assume(i1 %22)
  %23 = add i32 %21, -1
  store i32 %23, ptr %15, align 4
  %24 = icmp eq i32 %23, 0
  br i1 %24, label %25, label %28

25:                                               ; preds = %20
  call void @_efree(ptr noundef nonnull %15) #7
  br label %28

26:                                               ; preds = %9
  %27 = load ptr, ptr %5, align 8
  br label %28

28:                                               ; preds = %12, %14, %20, %25, %16, %4, %26
  %.0 = phi ptr [ %27, %26 ], [ null, %4 ], [ null, %16 ], [ null, %25 ], [ null, %20 ], [ null, %14 ], [ null, %12 ]
  ret ptr %.0
}